target datalayout = "e-m:e-p270:32:32-p271:32:32-p272:64:64-i64:64-i128:128-f80:128-n8:16:32:64-S128"
target triple = "x86_64-pc-linux-gnu"

%struct._lv_obj_t = type { ptr, ptr, ptr, ptr, ptr, %struct.lv_area_t, i32, i16, i16 }
%struct.lv_area_t = type { i32, i32, i32, i32 }
%struct.lv_event_list_t = type { %struct._lv_array_t, i8 }
%struct._lv_array_t = type { ptr, i32, i32, i32, i8 }
%struct._lv_obj_spec_attr_t = type { ptr, ptr, %struct.lv_event_list_t, %struct.lv_point_t, i32, i32, i16, i16 }
%struct.lv_point_t = type { i32, i32 }

; Function Attrs: nounwind uwtable
define ptr @lv_obj_get_parent(ptr noundef %0) #0 {
  %2 = alloca ptr, align 8
  %3 = alloca ptr, align 8
  store ptr %0, ptr %3, align 8, !tbaa !3
  %4 = load ptr, ptr %3, align 8, !tbaa !3
  %5 = icmp eq ptr %4, null
  br i1 %5, label %6, label %7

6:                                                ; preds = %1
  store ptr null, ptr %2, align 8
  br label %20

7:                                                ; preds = %1
  br label %8

8:                                                ; preds = %7
  %9 = load ptr, ptr %3, align 8, !tbaa !3
  %10 = icmp ne ptr %9, null
  br i1 %10, label %15, label %11

11:                                               ; preds = %8
  br label %12

12:                                               ; preds = %11
  br label %13

13:                                               ; preds = %12
  br label %14

14:                                               ; preds = %13, %14
  br label %14

15:                                               ; preds = %8
  br label %16

16:                                               ; preds = %15
  %17 = load ptr, ptr %3, align 8, !tbaa !3
  %18 = getelementptr inbounds nuw %struct._lv_obj_t, ptr %17, i32 0, i32 1
  %19 = load ptr, ptr %18, align 8, !tbaa !30
  store ptr %19, ptr %2, align 8
  br label %20

20:                                               ; preds = %16, %6
  %21 = load ptr, ptr %2, align 8
  ret ptr %21
}

; Function Attrs: nounwind uwtable
define i32 @lv_obj_get_index_by_type(ptr noundef %0, ptr noundef %1) #0 {
  %3 = alloca i32, align 4
  %4 = alloca ptr, align 8
  %5 = alloca ptr, align 8
  %6 = alloca ptr, align 8
  %7 = alloca i32, align 4
  %8 = alloca i32, align 4
  %9 = alloca i32, align 4
  %10 = alloca ptr, align 8
  store ptr %0, ptr %4, align 8, !tbaa !3
  store ptr %1, ptr %5, align 8, !tbaa !82
  br label %11

11:                                               ; preds = %2
  %12 = load ptr, ptr %4, align 8, !tbaa !3
  %13 = icmp ne ptr %12, null
  br i1 %13, label %18, label %14

14:                                               ; preds = %11
  br label %15

15:                                               ; preds = %14
  br label %16

16:                                               ; preds = %15
  br label %17

17:                                               ; preds = %16, %17
  br label %17

18:                                               ; preds = %11
  br label %19

19:                                               ; preds = %18
  call void @llvm.lifetime.start.p0(i64 8, ptr %6) #3
  %20 = load ptr, ptr %4, align 8, !tbaa !3
  %21 = call ptr @lv_obj_get_parent(ptr noundef %20)
  store ptr %21, ptr %6, align 8, !tbaa !3
  %22 = load ptr, ptr %6, align 8, !tbaa !3
  %23 = icmp eq ptr %22, null
  br i1 %23, label %24, label %25

24:                                               ; preds = %19
  store i32 -1, ptr %3, align 4
  store i32 1, ptr %7, align 4
  br label %68

25:                                               ; preds = %19
  call void @llvm.lifetime.start.p0(i64 4, ptr %8) #3
  store i32 0, ptr %8, align 4, !tbaa !37
  call void @llvm.lifetime.start.p0(i64 4, ptr %9) #3
  store i32 0, ptr %9, align 4, !tbaa !37
  store i32 0, ptr %8, align 4, !tbaa !37
  br label %26

26:                                               ; preds = %63, %25
  %27 = load i32, ptr %8, align 4, !tbaa !37
  %28 = load ptr, ptr %6, align 8, !tbaa !3
  %29 = getelementptr inbounds nuw %struct._lv_obj_t, ptr %28, i32 0, i32 2
  %30 = load ptr, ptr %29, align 8, !tbaa !43
  %31 = getelementptr inbounds nuw %struct._lv_obj_spec_attr_t, ptr %30, i32 0, i32 6
  %32 = load i16, ptr %31, align 8, !tbaa !64
  %33 = zext i16 %32 to i32
  %34 = icmp ult i32 %27, %33
  br i1 %34, label %35, label %66

35:                                               ; preds = %26
  call void @llvm.lifetime.start.p0(i64 8, ptr %10) #3
  %36 = load ptr, ptr %6, align 8, !tbaa !3
  %37 = getelementptr inbounds nuw %struct._lv_obj_t, ptr %36, i32 0, i32 2
  %38 = load ptr, ptr %37, align 8, !tbaa !43
  %39 = getelementptr inbounds nuw %struct._lv_obj_spec_attr_t, ptr %38, i32 0, i32 0
  %40 = load ptr, ptr %39, align 8, !tbaa !66
  %41 = load i32, ptr %8, align 4, !tbaa !37
  %42 = zext i32 %41 to i64
  %43 = getelementptr inbounds nuw ptr, ptr %40, i64 %42
  %44 = load ptr, ptr %43, align 8, !tbaa !3
  store ptr %44, ptr %10, align 8, !tbaa !3
  %45 = load ptr, ptr %10, align 8, !tbaa !3
  %46 = getelementptr inbounds nuw %struct._lv_obj_t, ptr %45, i32 0, i32 0
  %47 = load ptr, ptr %46, align 8, !tbaa !83
  %48 = load ptr, ptr %5, align 8, !tbaa !82
  %49 = icmp eq ptr %47, %48
  br i1 %49, label %50, label %59

50:                                               ; preds = %35
  %51 = load ptr, ptr %10, align 8, !tbaa !3
  %52 = load ptr, ptr %4, align 8, !tbaa !3
  %53 = icmp eq ptr %51, %52
  br i1 %53, label %54, label %56

54:                                               ; preds = %50
  %55 = load i32, ptr %9, align 4, !tbaa !37
  store i32 %55, ptr %3, align 4
  store i32 1, ptr %7, align 4
  br label %60

56:                                               ; preds = %50
  %57 = load i32, ptr %9, align 4, !tbaa !37
  %58 = add i32 %57, 1
  store i32 %58, ptr %9, align 4, !tbaa !37
  br label %59

59:                                               ; preds = %56, %35
  store i32 0, ptr %7, align 4
  br label %60

60:                                               ; preds = %59, %54
  call void @llvm.lifetime.end.p0(i64 8, ptr %10) #3
  %61 = load i32, ptr %7, align 4
  switch i32 %61, label %67 [
    i32 0, label %62
  ]

62:                                               ; preds = %60
  br label %63

63:                                               ; preds = %62
  %64 = load i32, ptr %8, align 4, !tbaa !37
  %65 = add i32 %64, 1
  store i32 %65, ptr %8, align 4, !tbaa !37
  br label %26, !llvm.loop !86

66:                                               ; preds = %26
  store i32 -1, ptr %3, align 4
  store i32 1, ptr %7, align 4
  br label %67

67:                                               ; preds = %66, %60
  call void @llvm.lifetime.end.p0(i64 4, ptr %9) #3
  call void @llvm.lifetime.end.p0(i64 4, ptr %8) #3
  br label %68

68:                                               ; preds = %67, %24
  call void @llvm.lifetime.end.p0(i64 8, ptr %6) #3
  %69 = load i32, ptr %3, align 4
  ret i32 %69
}