; Function Attrs: nofree norecurse nosync nounwind memory(read, inaccessiblemem: none) uwtable
define i32 @lv_obj_get_index_by_type(ptr noundef readonly captures(address) %0, ptr noundef readnone captures(address) %1) local_unnamed_addr #4 {
  %.not = icmp eq ptr %0, null
  br i1 %.not, label %.preheader, label %lv_obj_get_parent.exit

.preheader:                                       ; preds = %2, %.preheader
  br label %.preheader

lv_obj_get_parent.exit:                           ; preds = %2
  %3 = getelementptr inbounds nuw i8, ptr %0, i64 8
  %4 = load ptr, ptr %3, align 8, !tbaa !3
  %5 = icmp eq ptr %4, null
  br i1 %5, label %.loopexit, label %.preheader27

.preheader27:                                     ; preds = %lv_obj_get_parent.exit
  %6 = getelementptr inbounds nuw i8, ptr %4, i64 16
  %7 = load ptr, ptr %6, align 8, !tbaa !37
  %8 = getelementptr inbounds nuw i8, ptr %7, i64 64
  %9 = load i16, ptr %8, align 8, !tbaa !38
  %.not32 = icmp eq i16 %9, 0
  br i1 %.not32, label %.loopexit, label %.lr.ph

.lr.ph:                                           ; preds = %.preheader27
  %10 = load ptr, ptr %7, align 8, !tbaa !42
  %wide.trip.count = zext i16 %9 to i64
  br label %11

11:                                               ; preds = %.lr.ph, %20
  %indvars.iv = phi i64 [ 0, %.lr.ph ], [ %indvars.iv.next, %20 ]
  %.01529 = phi i32 [ 0, %.lr.ph ], [ %.217.ph, %20 ]
  %12 = getelementptr inbounds nuw ptr, ptr %10, i64 %indvars.iv
  %13 = load ptr, ptr %12, align 8, !tbaa !33
  %14 = load ptr, ptr %13, align 8, !tbaa !68
  %15 = icmp eq ptr %14, %1
  br i1 %15, label %16, label %20

16:                                               ; preds = %11
  %17 = icmp eq ptr %13, %0
  br i1 %17, label %.loopexit, label %18

18:                                               ; preds = %16
  %19 = add i32 %.01529, 1
  br label %20

20:                                               ; preds = %18, %11
  %.217.ph = phi i32 [ %.01529, %11 ], [ %19, %18 ]
  %indvars.iv.next = add nuw nsw i64 %indvars.iv, 1
  %exitcond.not = icmp eq i64 %indvars.iv.next, %wide.trip.count
  br i1 %exitcond.not, label %.loopexit, label %11, !llvm.loop !71

.loopexit:                                        ; preds = %20, %16, %.preheader27, %lv_obj_get_parent.exit
  %.0 = phi i32 [ -1, %lv_obj_get_parent.exit ], [ -1, %.preheader27 ], [ -1, %20 ], [ %.01529, %16 ]
  ret i32 %.0
}